target datalayout = "e-m:e-p270:32:32-p271:32:32-p272:64:64-i64:64-i128:128-f80:128-n8:16:32:64-S128"
target triple = "x86_64-pc-linux-gnu"

; Function Attrs: nounwind uwtable
define hidden i64 @FT_MulDiv_No_Round(i64 noundef %0, i64 noundef %1, i64 noundef %2) #0 {
  %4 = alloca i64, align 8
  %5 = alloca i64, align 8
  %6 = alloca i64, align 8
  %7 = alloca i32, align 4
  %8 = alloca i64, align 8
  %9 = alloca i64, align 8
  %10 = alloca i64, align 8
  %11 = alloca i64, align 8
  %12 = alloca i64, align 8
  store i64 %0, ptr %4, align 8, !tbaa !47
  store i64 %1, ptr %5, align 8, !tbaa !47
  store i64 %2, ptr %6, align 8, !tbaa !47
  call void @llvm.lifetime.start.p0(i64 4, ptr %7) #10
  store i32 1, ptr %7, align 4, !tbaa !8
  call void @llvm.lifetime.start.p0(i64 8, ptr %8) #10
  call void @llvm.lifetime.start.p0(i64 8, ptr %9) #10
  call void @llvm.lifetime.start.p0(i64 8, ptr %10) #10
  call void @llvm.lifetime.start.p0(i64 8, ptr %11) #10
  call void @llvm.lifetime.start.p0(i64 8, ptr %12) #10
  br label %13

13:                                               ; preds = %3
  %14 = load i64, ptr %4, align 8, !tbaa !47
  %15 = icmp slt i64 %14, 0
  br i1 %15, label %16, label %21

16:                                               ; preds = %13
  %17 = load i64, ptr %4, align 8, !tbaa !47
  %18 = sub i64 0, %17
  store i64 %18, ptr %8, align 8, !tbaa !47
  %19 = load i32, ptr %7, align 4, !tbaa !8
  %20 = sub nsw i32 0, %19
  store i32 %20, ptr %7, align 4, !tbaa !8
  br label %23

21:                                               ; preds = %13
  %22 = load i64, ptr %4, align 8, !tbaa !47
  store i64 %22, ptr %8, align 8, !tbaa !47
  br label %23

23:                                               ; preds = %21, %16
  br label %24

24:                                               ; preds = %23
  br label %25

25:                                               ; preds = %24
  br label %26

26:                                               ; preds = %25
  %27 = load i64, ptr %5, align 8, !tbaa !47
  %28 = icmp slt i64 %27, 0
  br i1 %28, label %29, label %34

29:                                               ; preds = %26
  %30 = load i64, ptr %5, align 8, !tbaa !47
  %31 = sub i64 0, %30
  store i64 %31, ptr %9, align 8, !tbaa !47
  %32 = load i32, ptr %7, align 4, !tbaa !8
  %33 = sub nsw i32 0, %32
  store i32 %33, ptr %7, align 4, !tbaa !8
  br label %36

34:                                               ; preds = %26
  %35 = load i64, ptr %5, align 8, !tbaa !47
  store i64 %35, ptr %9, align 8, !tbaa !47
  br label %36

36:                                               ; preds = %34, %29
  br label %37

37:                                               ; preds = %36
  br label %38

38:                                               ; preds = %37
  br label %39

39:                                               ; preds = %38
  %40 = load i64, ptr %6, align 8, !tbaa !47
  %41 = icmp slt i64 %40, 0
  br i1 %41, label %42, label %47

42:                                               ; preds = %39
  %43 = load i64, ptr %6, align 8, !tbaa !47
  %44 = sub i64 0, %43
  store i64 %44, ptr %10, align 8, !tbaa !47
  %45 = load i32, ptr %7, align 4, !tbaa !8
  %46 = sub nsw i32 0, %45
  store i32 %46, ptr %7, align 4, !tbaa !8
  br label %49

47:                                               ; preds = %39
  %48 = load i64, ptr %6, align 8, !tbaa !47
  store i64 %48, ptr %10, align 8, !tbaa !47
  br label %49

49:                                               ; preds = %47, %42
  br label %50

50:                                               ; preds = %49
  br label %51

51:                                               ; preds = %50
  %52 = load i64, ptr %10, align 8, !tbaa !47
  %53 = icmp ugt i64 %52, 0
  br i1 %53, label %54, label %60

54:                                               ; preds = %51
  %55 = load i64, ptr %8, align 8, !tbaa !47
  %56 = load i64, ptr %9, align 8, !tbaa !47
  %57 = mul i64 %55, %56
  %58 = load i64, ptr %10, align 8, !tbaa !47
  %59 = udiv i64 %57, %58
  br label %61

60:                                               ; preds = %51
  br label %61

61:                                               ; preds = %60, %54
  %62 = phi i64 [ %59, %54 ], [ 2147483647, %60 ]
  store i64 %62, ptr %11, align 8, !tbaa !47
  %63 = load i64, ptr %11, align 8, !tbaa !47
  store i64 %63, ptr %12, align 8, !tbaa !47
  %64 = load i32, ptr %7, align 4, !tbaa !8
  %65 = icmp slt i32 %64, 0
  br i1 %65, label %66, label %69

66:                                               ; preds = %61
  %67 = load i64, ptr %12, align 8, !tbaa !47
  %68 = sub i64 0, %67
  br label %71

69:                                               ; preds = %61
  %70 = load i64, ptr %12, align 8, !tbaa !47
  br label %71

71:                                               ; preds = %69, %66
  %72 = phi i64 [ %68, %66 ], [ %70, %69 ]
  call void @llvm.lifetime.end.p0(i64 8, ptr %12) #10
  call void @llvm.lifetime.end.p0(i64 8, ptr %11) #10
  call void @llvm.lifetime.end.p0(i64 8, ptr %10) #10
  call void @llvm.lifetime.end.p0(i64 8, ptr %9) #10
  call void @llvm.lifetime.end.p0(i64 8, ptr %8) #10
  call void @llvm.lifetime.end.p0(i64 4, ptr %7) #10
  ret i64 %72
}