; Function Attrs: mustprogress nofree norecurse nosync nounwind willreturn memory(none) uwtable
define hidden i64 @FT_MulDiv_No_Round(i64 noundef %0, i64 noundef %1, i64 noundef %2) local_unnamed_addr #3 {
  %.not = icmp eq i64 %2, 0
  br i1 %.not, label %7, label %4

4:                                                ; preds = %3
  %.021 = tail call i64 @llvm.abs.i64(i64 %2, i1 false)
  %.022 = tail call i64 @llvm.abs.i64(i64 %1, i1 false)
  %.020 = tail call i64 @llvm.abs.i64(i64 %0, i1 false)
  %5 = mul i64 %.022, %.020
  %6 = udiv i64 %5, %.021
  br label %7

7:                                                ; preds = %3, %4
  %8 = phi i64 [ %6, %4 ], [ 2147483647, %3 ]
  %9 = icmp slt i64 %2, 0
  %10 = icmp slt i64 %1, 0
  %11 = icmp slt i64 %0, 0
  %.0 = select i1 %11, i32 -1, i32 1
  %12 = sub nsw i32 0, %.0
  %.1 = select i1 %10, i32 %12, i32 %.0
  %13 = sub nsw i32 0, %.1
  %.2 = select i1 %9, i32 %13, i32 %.1
  %14 = icmp slt i32 %.2, 0
  %15 = sub i64 0, %8
  %16 = select i1 %14, i64 %15, i64 %8
  ret i64 %16
}